; Function Attrs: mustprogress uwtable
define dso_local void @_ZN8ConstantC2EPK4TypeRKNSt7__cxx1112basic_stringIcSt11char_traitsIcESaIcEEE(ptr noundef nonnull align 8 dereferenceable(64) %0, ptr noundef %1, ptr noundef nonnull align 8 dereferenceable(32) %2) unnamed_addr #3 align 2 personality ptr @__gxx_personality_v0 {
  tail call void @_ZN10ExpressionC2E9eTermType(ptr noundef nonnull align 8 dereferenceable(24) %0, i32 noundef 0)
  store ptr getelementptr inbounds ({ [24 x ptr] }, ptr @_ZTV8Constant, i64 0, i32 0, i64 2), ptr %0, align 8
  %4 = getelementptr inbounds i8, ptr %0, i64 24
  store ptr %1, ptr %4, align 8
  %5 = getelementptr inbounds i8, ptr %0, i64 32
  invoke void @_ZNSt7__cxx1112basic_stringIcSt11char_traitsIcESaIcEEC1ERKS4_(ptr noundef nonnull align 8 dereferenceable(32) %5, ptr noundef nonnull align 8 dereferenceable(32) %2)
          to label %6 unwind label %7

6:                                                ; preds = %3
  ret void

7:                                                ; preds = %3
  %8 = landingpad { ptr, i32 }
          cleanup
  tail call void @_ZN10ExpressionD2Ev(ptr noundef nonnull align 8 dereferenceable(24) %0) #16
  resume { ptr, i32 } %8
}